; Function Attrs: mustprogress uwtable
define void @_ZN19PacketRangeGroupBox27on_dependedCheckBox_toggledEb(ptr noundef nonnull align 8 dereferenceable(60) %0, i1 noundef zeroext %1) local_unnamed_addr #0 align 2 {
  %3 = getelementptr inbounds i8, ptr %0, i64 48
  %4 = load ptr, ptr %3, align 8
  %.not = icmp eq ptr %4, null
  br i1 %.not, label %8, label %5

5:                                                ; preds = %2
  %6 = zext i1 %1 to i32
  %7 = getelementptr inbounds i8, ptr %4, i64 12
  store i32 %6, ptr %7, align 4
  tail call void @_ZN19PacketRangeGroupBox12updateCountsEv(ptr noundef nonnull align 8 dereferenceable(60) %0)
  br label %8

8:                                                ; preds = %5, %2
  ret void
}